; Function Attrs: mustprogress uwtable
define dso_local void @_ZN4pbrt17BasicSceneBuilder18ReverseOrientationENS_7FileLocE(ptr noundef nonnull align 64 captures(none) dereferenceable(3544) %0, ptr noundef byval(%"struct.pbrt::FileLoc") align 8 %1) unnamed_addr #5 align 2 {
  %3 = getelementptr inbounds nuw i8, ptr %0, i64 24
  %4 = load i32, ptr %3, align 8, !tbaa !122
  %5 = icmp eq i32 %4, 0
  br i1 %5, label %6, label %7

6:                                                ; preds = %2
  call void @_ZN4pbrt9ErrorExitIJRA19_KcEEEvPKNS_7FileLocEPS1_DpOT_(ptr noundef nonnull %1, ptr noundef nonnull @.str.16, ptr noundef nonnull align 1 dereferenceable(19) @.str.17) #37
  unreachable

7:                                                ; preds = %2
  %8 = getelementptr inbounds nuw i8, ptr %0, i64 784
  %9 = load i8, ptr %8, align 16, !tbaa !167, !range !168, !noundef !169
  %10 = xor i8 %9, 1
  store i8 %10, ptr %8, align 16, !tbaa !167
  ret void
}